; ModuleID = 'source-C-CXX/39/1456.c'
source_filename = "source-C-CXX/39/1456.c"
target datalayout = "e-m:e-p270:32:32-p271:32:32-p272:64:64-i64:64-f80:128-n8:16:32:64-S128"
target triple = "x86_64-pc-linux-gnu"

@.str = private unnamed_addr constant [20 x i8] c"%lf\0A%lf\0A%lf\0A%lf\0A%lf\00", align 1
@.str.1 = private unnamed_addr constant [14 x i8] c"Invalid input\00", align 1
@.str.2 = private unnamed_addr constant [6 x i8] c"%.4lf\00", align 1

; Function Attrs: nofree nounwind sspstrong uwtable
define dso_local i32 @main() local_unnamed_addr #0 {
  %1 = alloca double, align 8
  %2 = alloca double, align 8
  %3 = alloca double, align 8
  %4 = alloca double, align 8
  %5 = alloca double, align 8
  %6 = bitcast double* %1 to i8*
  call void @llvm.lifetime.start.p0i8(i64 8, i8* nonnull %6) #5
  %7 = bitcast double* %2 to i8*
  call void @llvm.lifetime.start.p0i8(i64 8, i8* nonnull %7) #5
  %8 = bitcast double* %3 to i8*
  call void @llvm.lifetime.start.p0i8(i64 8, i8* nonnull %8) #5
  %9 = bitcast double* %4 to i8*
  call void @llvm.lifetime.start.p0i8(i64 8, i8* nonnull %9) #5
  %10 = bitcast double* %5 to i8*
  call void @llvm.lifetime.start.p0i8(i64 8, i8* nonnull %10) #5
  %11 = call i32 (i8*, ...) @__isoc99_scanf(i8* getelementptr inbounds ([20 x i8], [20 x i8]* @.str, i64 0, i64 0), double* nonnull %1, double* nonnull %2, double* nonnull %3, double* nonnull %4, double* nonnull %5)
  %12 = load double, double* %1, align 8, !tbaa !5
  %13 = load double, double* %2, align 8, !tbaa !5
  %14 = load double, double* %3, align 8, !tbaa !5
  %15 = load double, double* %4, align 8, !tbaa !5
  %16 = load double, double* %5, align 8, !tbaa !5
  %17 = fdiv double %16, 1.800000e+02
  %18 = fmul double %17, 0x400921FB4D12D84A
  %19 = fadd double %12, %13
  %20 = fadd double %19, %14
  %21 = fadd double %20, %15
  %22 = fmul double %21, 5.000000e-01
  %23 = fsub double %22, %12
  %24 = fsub double %22, %13
  %25 = fmul double %23, %24
  %26 = fsub double %22, %14
  %27 = fmul double %26, %25
  %28 = fsub double %22, %15
  %29 = fmul double %28, %27
  %30 = fmul double %12, %13
  %31 = fmul double %30, %14
  %32 = fmul double %31, %15
  %33 = fmul double %18, 5.000000e-01
  %34 = call double @cos(double %33) #5
  %35 = call double @cos(double %33) #5
  %36 = fmul double %34, %35
  %37 = fmul double %32, %36
  %38 = fsub double %29, %37
  %39 = call double @sqrt(double %38) #5
  %40 = load double, double* %5, align 8, !tbaa !5
  %41 = fdiv double %40, 1.800000e+02
  %42 = fmul double %41, 0x400921FB4D12D84A
  store double %42, double* %5, align 8, !tbaa !5
  %43 = load double, double* %1, align 8, !tbaa !5
  %44 = load double, double* %2, align 8, !tbaa !5
  %45 = fadd double %43, %44
  %46 = load double, double* %3, align 8, !tbaa !5
  %47 = fadd double %45, %46
  %48 = load double, double* %4, align 8, !tbaa !5
  %49 = fadd double %47, %48
  %50 = fmul double %49, 5.000000e-01
  %51 = fsub double %50, %43
  %52 = fsub double %50, %44
  %53 = fmul double %51, %52
  %54 = fsub double %50, %46
  %55 = fmul double %54, %53
  %56 = fsub double %50, %48
  %57 = fmul double %56, %55
  %58 = fmul double %43, %44
  %59 = fmul double %58, %46
  %60 = fmul double %59, %48
  %61 = fmul double %42, 5.000000e-01
  %62 = call double @cos(double %61) #5
  %63 = load double, double* %5, align 8, !tbaa !5
  %64 = fmul double %63, 5.000000e-01
  %65 = call double @cos(double %64) #5
  %66 = fmul double %62, %65
  %67 = fmul double %60, %66
  %68 = fsub double %57, %67
  %69 = fcmp olt double %68, 0.000000e+00
  br i1 %69, label %70, label %72

70:                                               ; preds = %0
  %71 = call i32 (i8*, ...) @printf(i8* nonnull dereferenceable(1) getelementptr inbounds ([14 x i8], [14 x i8]* @.str.1, i64 0, i64 0))
  br label %74

72:                                               ; preds = %0
  %73 = call i32 (i8*, ...) @printf(i8* nonnull dereferenceable(1) getelementptr inbounds ([6 x i8], [6 x i8]* @.str.2, i64 0, i64 0), double %39)
  br label %74

74:                                               ; preds = %72, %70
  call void @llvm.lifetime.end.p0i8(i64 8, i8* nonnull %10) #5
  call void @llvm.lifetime.end.p0i8(i64 8, i8* nonnull %9) #5
  call void @llvm.lifetime.end.p0i8(i64 8, i8* nonnull %8) #5
  call void @llvm.lifetime.end.p0i8(i64 8, i8* nonnull %7) #5
  call void @llvm.lifetime.end.p0i8(i64 8, i8* nonnull %6) #5
  ret i32 0
}

; Function Attrs: argmemonly mustprogress nofree nosync nounwind willreturn
declare void @llvm.lifetime.start.p0i8(i64 immarg, i8* nocapture) #1

; Function Attrs: nofree nounwind
declare noundef i32 @__isoc99_scanf(i8* nocapture noundef readonly, ...) local_unnamed_addr #2

; Function Attrs: mustprogress nofree nounwind sspstrong uwtable willreturn
define dso_local double @S(double %0, double %1, double %2, double %3, double %4) local_unnamed_addr #3 {
  %6 = fdiv double %4, 1.800000e+02
  %7 = fmul double %6, 0x400921FB4D12D84A
  %8 = fadd double %0, %1
  %9 = fadd double %8, %2
  %10 = fadd double %9, %3
  %11 = fmul double %10, 5.000000e-01
  %12 = fsub double %11, %0
  %13 = fsub double %11, %1
  %14 = fmul double %12, %13
  %15 = fsub double %11, %2
  %16 = fmul double %15, %14
  %17 = fsub double %11, %3
  %18 = fmul double %17, %16
  %19 = fmul double %0, %1
  %20 = fmul double %19, %2
  %21 = fmul double %20, %3
  %22 = fmul double %7, 5.000000e-01
  %23 = tail call double @cos(double %22) #5
  %24 = tail call double @cos(double %22) #5
  %25 = fmul double %23, %24
  %26 = fmul double %21, %25
  %27 = fsub double %18, %26
  %28 = tail call double @sqrt(double %27) #5
  ret double %28
}

; Function Attrs: mustprogress nofree nounwind willreturn
declare double @cos(double) local_unnamed_addr #4

; Function Attrs: nofree nounwind
declare noundef i32 @printf(i8* nocapture noundef readonly, ...) local_unnamed_addr #2

; Function Attrs: argmemonly mustprogress nofree nosync nounwind willreturn
declare void @llvm.lifetime.end.p0i8(i64 immarg, i8* nocapture) #1

; Function Attrs: mustprogress nofree nounwind willreturn
declare double @sqrt(double) local_unnamed_addr #4


!llvm.module.flags = !{!0, !1, !2, !3}
!llvm.ident = !{!4}

!0 = !{i32 1, !"wchar_size", i32 4}
!1 = !{i32 7, !"PIC Level", i32 2}
!2 = !{i32 7, !"PIE Level", i32 2}
!3 = !{i32 7, !"uwtable", i32 1}
!4 = !{!"clang version 13.0.0"}
!5 = !{!6, !6, i64 0}
!6 = !{!"double", !7, i64 0}
!7 = !{!"omnipotent char", !8, i64 0}
!8 = !{!"Simple C/C++ TBAA"}
